; Function Attrs: mustprogress nounwind uwtable
define internal void @_ZN12_GLOBAL__N_126HeaderIncludesJSONCallbackD2Ev(ptr noundef nonnull align 8 dereferenceable(560) %0) unnamed_addr #0 align 2 {
  store ptr getelementptr inbounds inrange(-16, 384) (i8, ptr @_ZTVN12_GLOBAL__N_126HeaderIncludesJSONCallbackE, i64 16), ptr %0, align 8
  %2 = getelementptr inbounds nuw i8, ptr %0, i64 24
  %3 = load i8, ptr %2, align 8
  %4 = trunc i8 %3 to i1
  br i1 %4, label %5, label %13

5:                                                ; preds = %1
  %6 = getelementptr inbounds nuw i8, ptr %0, i64 16
  %7 = load ptr, ptr %6, align 8
  %8 = icmp eq ptr %7, null
  br i1 %8, label %13, label %9

9:                                                ; preds = %5
  %10 = load ptr, ptr %7, align 8
  %11 = getelementptr inbounds i8, ptr %10, i64 8
  %12 = load ptr, ptr %11, align 8
  tail call void %12(ptr noundef nonnull align 8 dereferenceable(48) %7) #14
  br label %13

13:                                               ; preds = %5, %9, %1
  %14 = getelementptr inbounds nuw i8, ptr %0, i64 32
  %15 = load ptr, ptr %14, align 8
  %16 = tail call noundef i64 @_ZNK4llvm15SmallVectorBaseIjE4sizeEv(ptr noundef nonnull align 8 dereferenceable(16) %14) #14
  %.not4.i.i = icmp eq i64 %16, 0
  br i1 %.not4.i.i, label %_ZN4llvm23SmallVectorTemplateBaseINSt7__cxx1112basic_stringIcSt11char_traitsIcESaIcEEELb0EE13destroy_rangeEPS6_S8_.exit.i, label %.lr.ph.i.preheader.i

.lr.ph.i.preheader.i:                             ; preds = %13
  %17 = getelementptr inbounds %"class.std::__cxx11::basic_string", ptr %15, i64 %16
  br label %.lr.ph.i.i

.lr.ph.i.i:                                       ; preds = %.lr.ph.i.i, %.lr.ph.i.preheader.i
  %.05.i.i = phi ptr [ %18, %.lr.ph.i.i ], [ %17, %.lr.ph.i.preheader.i ]
  %18 = getelementptr inbounds i8, ptr %.05.i.i, i64 -32
  tail call void @_ZNSt7__cxx1112basic_stringIcSt11char_traitsIcESaIcEED1Ev(ptr noundef nonnull align 8 dereferenceable(32) %18) #14
  %.not.i.i = icmp eq ptr %15, %18
  br i1 %.not.i.i, label %_ZN4llvm23SmallVectorTemplateBaseINSt7__cxx1112basic_stringIcSt11char_traitsIcESaIcEEELb0EE13destroy_rangeEPS6_S8_.exit.i, label %.lr.ph.i.i, !llvm.loop !33

_ZN4llvm23SmallVectorTemplateBaseINSt7__cxx1112basic_stringIcSt11char_traitsIcESaIcEEELb0EE13destroy_rangeEPS6_S8_.exit.i: ; preds = %.lr.ph.i.i, %13
  %19 = load ptr, ptr %14, align 8
  %20 = getelementptr inbounds i8, ptr %0, i64 48
  %21 = icmp eq ptr %19, %20
  br i1 %21, label %_ZN4llvm11SmallVectorINSt7__cxx1112basic_stringIcSt11char_traitsIcESaIcEEELj16EED2Ev.exit, label %22

22:                                               ; preds = %_ZN4llvm23SmallVectorTemplateBaseINSt7__cxx1112basic_stringIcSt11char_traitsIcESaIcEEELb0EE13destroy_rangeEPS6_S8_.exit.i
  tail call void @free(ptr noundef %19) #14
  br label %_ZN4llvm11SmallVectorINSt7__cxx1112basic_stringIcSt11char_traitsIcESaIcEEELj16EED2Ev.exit

_ZN4llvm11SmallVectorINSt7__cxx1112basic_stringIcSt11char_traitsIcESaIcEEELj16EED2Ev.exit: ; preds = %_ZN4llvm23SmallVectorTemplateBaseINSt7__cxx1112basic_stringIcSt11char_traitsIcESaIcEEELb0EE13destroy_rangeEPS6_S8_.exit.i, %22
  tail call void @_ZN5clang11PPCallbacksD2Ev(ptr noundef nonnull align 8 dereferenceable(8) %0) #14
  ret void
}